target datalayout = "e-m:e-p270:32:32-p271:32:32-p272:64:64-i64:64-i128:128-f80:128-n8:16:32:64-S128"
target triple = "x86_64-pc-linux-gnu"

%"class.llvm::NoopStatistic" = type { i8 }
%"class.llvm::StringRef" = type { ptr, i64 }
%"class.llvm::SmallVectorBase" = type { ptr, i32, i32 }
%"class.std::_Function_base" = type { %"union.std::_Any_data", ptr }
%"union.std::_Any_data" = type { %"union.std::_Nocopy_types" }
%"union.std::_Nocopy_types" = type { { i64, i64 } }
%"class.llvm::MetadataLoader::MetadataLoaderImpl" = type <{ %"class.(anonymous namespace)::BitcodeReaderMetadataList", ptr, ptr, ptr, ptr, %"struct.llvm::MetadataLoaderCallbacks", %"class.llvm::BitstreamCursor", %"class.std::vector.32", %"class.std::vector.37", i64, %"class.std::vector.42", %"class.llvm::SmallDenseMap.47", %"class.llvm::DenseMap", i8, i8, i8, i8, [4 x i8], %"class.llvm::DenseMap.51", i8, [7 x i8] }>
%"class.(anonymous namespace)::BitcodeReaderMetadataList" = type <{ %"class.llvm::SmallVector.1", %"class.llvm::SmallDenseSet", %"class.llvm::SmallDenseSet", %struct.anon, ptr, i32, [4 x i8] }>
%"class.llvm::SmallVector.1" = type { %"class.llvm::SmallVectorImpl.2", %"struct.llvm::SmallVectorStorage.5" }
%"class.llvm::SmallVectorImpl.2" = type { %"class.llvm::SmallVectorTemplateBase.3" }
%"class.llvm::SmallVectorTemplateBase.3" = type { %"class.llvm::SmallVectorTemplateCommon.4" }
%"class.llvm::SmallVectorTemplateCommon.4" = type { %"class.llvm::SmallVectorBase" }
%"struct.llvm::SmallVectorStorage.5" = type { [8 x i8] }
%"class.llvm::SmallDenseSet" = type { %"class.llvm::detail::DenseSetImpl" }
%"class.llvm::detail::DenseSetImpl" = type { %"class.llvm::SmallDenseMap" }
%"class.llvm::SmallDenseMap" = type { i32, i32, %"struct.llvm::AlignedCharArrayUnion.6" }
%"struct.llvm::AlignedCharArrayUnion.6" = type { [16 x i8] }
%struct.anon = type { %"class.llvm::SmallDenseMap.7", %"class.llvm::SmallDenseMap.10", %"class.llvm::SmallDenseMap.10", %"class.llvm::SmallVector.13" }
%"class.llvm::SmallDenseMap.7" = type { i32, i32, %"struct.llvm::AlignedCharArrayUnion.9" }
%"struct.llvm::AlignedCharArrayUnion.9" = type { [16 x i8] }
%"class.llvm::SmallDenseMap.10" = type { i32, i32, %"struct.llvm::AlignedCharArrayUnion.12" }
%"struct.llvm::AlignedCharArrayUnion.12" = type { [16 x i8] }
%"class.llvm::SmallVector.13" = type { %"class.llvm::SmallVectorImpl.14", %"struct.llvm::SmallVectorStorage.17" }
%"class.llvm::SmallVectorImpl.14" = type { %"class.llvm::SmallVectorTemplateBase.15" }
%"class.llvm::SmallVectorTemplateBase.15" = type { %"class.llvm::SmallVectorTemplateCommon.16" }
%"class.llvm::SmallVectorTemplateCommon.16" = type { %"class.llvm::SmallVectorBase" }
%"struct.llvm::SmallVectorStorage.17" = type { [16 x i8] }
%"struct.llvm::MetadataLoaderCallbacks" = type { %"class.std::function.18", %"class.std::function.21", %"class.std::optional" }
%"class.std::function.18" = type { %"class.std::_Function_base", ptr }
%"class.std::function.21" = type { %"class.std::_Function_base", ptr }
%"class.std::optional" = type { %"struct.std::_Optional_base" }
%"struct.std::_Optional_base" = type { %"struct.std::_Optional_payload" }
%"struct.std::_Optional_payload" = type { %"struct.std::_Optional_payload.base", [7 x i8] }
%"struct.std::_Optional_payload.base" = type { %"struct.std::_Optional_payload_base.base" }
%"struct.std::_Optional_payload_base.base" = type <{ %"union.std::_Optional_payload_base<std::function<void (llvm::Metadata **, unsigned int, std::function<llvm::Type *(unsigned int)>, std::function<unsigned int (unsigned int, unsigned int)>)>>::_Storage", i8 }>
%"union.std::_Optional_payload_base<std::function<void (llvm::Metadata **, unsigned int, std::function<llvm::Type *(unsigned int)>, std::function<unsigned int (unsigned int, unsigned int)>)>>::_Storage" = type { %"class.std::function.24" }
%"class.std::function.24" = type { %"class.std::_Function_base", ptr }
%"class.llvm::BitstreamCursor" = type { %"class.llvm::SimpleBitstreamCursor.base", i32, %"class.std::vector", %"class.llvm::SmallVector.27", ptr }
%"class.llvm::SimpleBitstreamCursor.base" = type <{ %"class.llvm::ArrayRef", i64, i64, i32 }>
%"class.llvm::ArrayRef" = type { ptr, i64 }
%"class.std::vector" = type { %"struct.std::_Vector_base" }
%"struct.std::_Vector_base" = type { %"struct.std::_Vector_base<std::shared_ptr<llvm::BitCodeAbbrev>, std::allocator<std::shared_ptr<llvm::BitCodeAbbrev>>>::_Vector_impl" }
%"struct.std::_Vector_base<std::shared_ptr<llvm::BitCodeAbbrev>, std::allocator<std::shared_ptr<llvm::BitCodeAbbrev>>>::_Vector_impl" = type { %"struct.std::_Vector_base<std::shared_ptr<llvm::BitCodeAbbrev>, std::allocator<std::shared_ptr<llvm::BitCodeAbbrev>>>::_Vector_impl_data" }
%"struct.std::_Vector_base<std::shared_ptr<llvm::BitCodeAbbrev>, std::allocator<std::shared_ptr<llvm::BitCodeAbbrev>>>::_Vector_impl_data" = type { ptr, ptr, ptr }
%"class.llvm::SmallVector.27" = type { %"class.llvm::SmallVectorImpl.28", %"struct.llvm::SmallVectorStorage.31" }
%"class.llvm::SmallVectorImpl.28" = type { %"class.llvm::SmallVectorTemplateBase.29" }
%"class.llvm::SmallVectorTemplateBase.29" = type { %"class.llvm::SmallVectorTemplateCommon.30" }
%"class.llvm::SmallVectorTemplateCommon.30" = type { %"class.llvm::SmallVectorBase" }
%"struct.llvm::SmallVectorStorage.31" = type { [256 x i8] }
%"class.std::vector.32" = type { %"struct.std::_Vector_base.33" }
%"struct.std::_Vector_base.33" = type { %"struct.std::_Vector_base<llvm::StringRef, std::allocator<llvm::StringRef>>::_Vector_impl" }
%"struct.std::_Vector_base<llvm::StringRef, std::allocator<llvm::StringRef>>::_Vector_impl" = type { %"struct.std::_Vector_base<llvm::StringRef, std::allocator<llvm::StringRef>>::_Vector_impl_data" }
%"struct.std::_Vector_base<llvm::StringRef, std::allocator<llvm::StringRef>>::_Vector_impl_data" = type { ptr, ptr, ptr }
%"class.std::vector.37" = type { %"struct.std::_Vector_base.38" }
%"struct.std::_Vector_base.38" = type { %"struct.std::_Vector_base<unsigned long, std::allocator<unsigned long>>::_Vector_impl" }
%"struct.std::_Vector_base<unsigned long, std::allocator<unsigned long>>::_Vector_impl" = type { %"struct.std::_Vector_base<unsigned long, std::allocator<unsigned long>>::_Vector_impl_data" }
%"struct.std::_Vector_base<unsigned long, std::allocator<unsigned long>>::_Vector_impl_data" = type { ptr, ptr, ptr }
%"class.std::vector.42" = type { %"struct.std::_Vector_base.43" }
%"struct.std::_Vector_base.43" = type { %"struct.std::_Vector_base<std::pair<llvm::DICompileUnit *, llvm::Metadata *>, std::allocator<std::pair<llvm::DICompileUnit *, llvm::Metadata *>>>::_Vector_impl" }
%"struct.std::_Vector_base<std::pair<llvm::DICompileUnit *, llvm::Metadata *>, std::allocator<std::pair<llvm::DICompileUnit *, llvm::Metadata *>>>::_Vector_impl" = type { %"struct.std::_Vector_base<std::pair<llvm::DICompileUnit *, llvm::Metadata *>, std::allocator<std::pair<llvm::DICompileUnit *, llvm::Metadata *>>>::_Vector_impl_data" }
%"struct.std::_Vector_base<std::pair<llvm::DICompileUnit *, llvm::Metadata *>, std::allocator<std::pair<llvm::DICompileUnit *, llvm::Metadata *>>>::_Vector_impl_data" = type { ptr, ptr, ptr }
%"class.llvm::SmallDenseMap.47" = type { i32, i32, %"struct.llvm::AlignedCharArrayUnion.49" }
%"struct.llvm::AlignedCharArrayUnion.49" = type { [256 x i8] }
%"class.llvm::DenseMap" = type <{ ptr, i32, i32, i32, [4 x i8] }>
%"class.llvm::DenseMap.51" = type <{ ptr, i32, i32, i32, [4 x i8] }>
%"class.llvm::TrackingMDRef" = type { ptr }

@_ZL17NumMDStringLoaded = internal global %"class.llvm::NoopStatistic" zeroinitializer, align 1

; Function Attrs: mustprogress nounwind uwtable
define linkonce_odr hidden noundef ptr @_ZN4llvm16cast_convert_valINS_8MDStringEPNS_8MetadataES3_E4doitEPKS2_(ptr noundef %0) #1 comdat align 2 {
  %2 = alloca ptr, align 8
  store ptr %0, ptr %2, align 8
  %3 = load ptr, ptr %2, align 8
  ret ptr %3
}

; Function Attrs: mustprogress nounwind uwtable
define linkonce_odr hidden noundef ptr @_ZNK4llvm13TrackingMDRef3getEv(ptr noundef nonnull align 8 dereferenceable(8) %0) #1 comdat align 2 {
  %2 = alloca ptr, align 8
  store ptr %0, ptr %2, align 8
  %3 = load ptr, ptr %2, align 8
  %4 = getelementptr inbounds nuw %"class.llvm::TrackingMDRef", ptr %3, i32 0, i32 0
  %5 = load ptr, ptr %4, align 8
  ret ptr %5
}

; Function Attrs: mustprogress nounwind uwtable
define linkonce_odr hidden noundef ptr @_ZNK4llvm25SmallVectorTemplateCommonINS_13TrackingMDRefEvE5beginEv(ptr noundef nonnull align 8 dereferenceable(16) %0) #1 comdat align 2 {
  %2 = alloca ptr, align 8
  store ptr %0, ptr %2, align 8
  %3 = load ptr, ptr %2, align 8
  %4 = getelementptr inbounds nuw %"class.llvm::SmallVectorBase", ptr %3, i32 0, i32 0
  %5 = load ptr, ptr %4, align 8
  ret ptr %5
}

; Function Attrs: mustprogress nounwind uwtable
define linkonce_odr hidden noundef ptr @_ZN4llvm8CastInfoINS_8MDStringEPNS_8MetadataEvE6doCastERKS3_(ptr noundef nonnull align 8 dereferenceable(8) %0) #1 comdat align 2 {
  %2 = alloca ptr, align 8
  store ptr %0, ptr %2, align 8
  %3 = load ptr, ptr %2, align 8
  %4 = load ptr, ptr %3, align 8
  %5 = call noundef ptr @_ZN4llvm16cast_convert_valINS_8MDStringEPNS_8MetadataES3_E4doitEPKS2_(ptr noundef %4)
  ret ptr %5
}

; Function Attrs: mustprogress nounwind uwtable
define linkonce_odr hidden noundef ptr @_ZNK4llvm13TrackingMDRefcvPNS_8MetadataEEv(ptr noundef nonnull align 8 dereferenceable(8) %0) #1 comdat align 2 {
  %2 = alloca ptr, align 8
  store ptr %0, ptr %2, align 8
  %3 = load ptr, ptr %2, align 8
  %4 = call noundef ptr @_ZNK4llvm13TrackingMDRef3getEv(ptr noundef nonnull align 8 dereferenceable(8) %3)
  ret ptr %4
}

; Function Attrs: mustprogress nounwind uwtable
define linkonce_odr hidden noundef nonnull align 8 dereferenceable(8) ptr @_ZNK4llvm25SmallVectorTemplateCommonINS_13TrackingMDRefEvEixEm(ptr noundef nonnull align 8 dereferenceable(16) %0, i64 noundef %1) #1 comdat align 2 {
  %3 = alloca ptr, align 8
  %4 = alloca i64, align 8
  store ptr %0, ptr %3, align 8
  store i64 %1, ptr %4, align 8
  %5 = load ptr, ptr %3, align 8
  %6 = call noundef ptr @_ZNK4llvm25SmallVectorTemplateCommonINS_13TrackingMDRefEvE5beginEv(ptr noundef nonnull align 8 dereferenceable(16) %5)
  %7 = load i64, ptr %4, align 8
  %8 = getelementptr inbounds %"class.llvm::TrackingMDRef", ptr %6, i64 %7
  ret ptr %8
}

; Function Attrs: mustprogress nounwind uwtable
define linkonce_odr hidden noundef nonnull align 8 dereferenceable(16) ptr @_ZNSt6vectorIN4llvm9StringRefESaIS1_EEixEm(ptr noundef nonnull align 8 dereferenceable(24) %0, i64 noundef %1) #1 comdat align 2 {
  %3 = alloca ptr, align 8
  %4 = alloca i64, align 8
  store ptr %0, ptr %3, align 8
  store i64 %1, ptr %4, align 8
  %5 = load ptr, ptr %3, align 8
  %6 = getelementptr inbounds nuw %"struct.std::_Vector_base.33", ptr %5, i32 0, i32 0
  %7 = getelementptr inbounds nuw %"struct.std::_Vector_base<llvm::StringRef, std::allocator<llvm::StringRef>>::_Vector_impl_data", ptr %6, i32 0, i32 0
  %8 = load ptr, ptr %7, align 8
  %9 = load i64, ptr %4, align 8
  %10 = getelementptr inbounds %"class.llvm::StringRef", ptr %8, i64 %9
  ret ptr %10
}

; Function Attrs: mustprogress nounwind uwtable
define linkonce_odr hidden noundef ptr @_ZN4llvm4castINS_8MDStringENS_8MetadataEEEDcPT0_(ptr noundef %0) #1 comdat {
  %2 = alloca ptr, align 8
  store ptr %0, ptr %2, align 8
  %3 = call noundef ptr @_ZN4llvm8CastInfoINS_8MDStringEPNS_8MetadataEvE6doCastERKS3_(ptr noundef nonnull align 8 dereferenceable(8) %2)
  ret ptr %3
}

; Function Attrs: mustprogress nounwind uwtable
define internal noundef ptr @_ZNK12_GLOBAL__N_125BitcodeReaderMetadataList6lookupEj(ptr noundef nonnull align 8 dereferenceable(188) %0, i32 noundef %1) #1 align 2 {
  %3 = alloca ptr, align 8
  %4 = alloca ptr, align 8
  %5 = alloca i32, align 4
  store ptr %0, ptr %4, align 8
  store i32 %1, ptr %5, align 4
  %6 = load ptr, ptr %4, align 8
  %7 = load i32, ptr %5, align 4
  %8 = zext i32 %7 to i64
  %9 = getelementptr inbounds nuw %"class.(anonymous namespace)::BitcodeReaderMetadataList", ptr %6, i32 0, i32 0
  %10 = call noundef i64 @_ZNK4llvm15SmallVectorBaseIjE4sizeEv(ptr noundef nonnull align 8 dereferenceable(16) %9)
  %11 = icmp ult i64 %8, %10
  br i1 %11, label %12, label %18

12:                                               ; preds = %2
  %13 = getelementptr inbounds nuw %"class.(anonymous namespace)::BitcodeReaderMetadataList", ptr %6, i32 0, i32 0
  %14 = load i32, ptr %5, align 4
  %15 = zext i32 %14 to i64
  %16 = call noundef nonnull align 8 dereferenceable(8) ptr @_ZNK4llvm25SmallVectorTemplateCommonINS_13TrackingMDRefEvEixEm(ptr noundef nonnull align 8 dereferenceable(16) %13, i64 noundef %15)
  %17 = call noundef ptr @_ZNK4llvm13TrackingMDRefcvPNS_8MetadataEEv(ptr noundef nonnull align 8 dereferenceable(8) %16)
  store ptr %17, ptr %3, align 8
  br label %19

18:                                               ; preds = %2
  store ptr null, ptr %3, align 8
  br label %19

19:                                               ; preds = %18, %12
  %20 = load ptr, ptr %3, align 8
  ret ptr %20
}

; Function Attrs: mustprogress nounwind uwtable
define linkonce_odr hidden noundef nonnull align 1 dereferenceable(1) ptr @_ZN4llvm13NoopStatisticppEv(ptr noundef nonnull align 1 dereferenceable(1) %0) #1 comdat align 2 {
  %2 = alloca ptr, align 8
  store ptr %0, ptr %2, align 8
  %3 = load ptr, ptr %2, align 8
  ret ptr %3
}

; Function Attrs: mustprogress nounwind uwtable
define dso_local noundef ptr @_ZN4llvm14MetadataLoader18MetadataLoaderImpl19lazyLoadOneMDStringEj(ptr noundef nonnull align 8 dereferenceable(1073) %0, i32 noundef %1) #1 align 2 {
  %3 = alloca ptr, align 8
  %4 = alloca ptr, align 8
  %5 = alloca i32, align 4
  %6 = alloca ptr, align 8
  %7 = alloca ptr, align 8
  %8 = alloca %"class.llvm::StringRef", align 8
  store ptr %0, ptr %4, align 8
  store i32 %1, ptr %5, align 4
  %9 = load ptr, ptr %4, align 8
  %10 = call noundef nonnull align 1 dereferenceable(1) ptr @_ZN4llvm13NoopStatisticppEv(ptr noundef nonnull align 1 dereferenceable(1) @_ZL17NumMDStringLoaded)
  %11 = getelementptr inbounds nuw %"class.llvm::MetadataLoader::MetadataLoaderImpl", ptr %9, i32 0, i32 0
  %12 = load i32, ptr %5, align 4
  %13 = call noundef ptr @_ZNK12_GLOBAL__N_125BitcodeReaderMetadataList6lookupEj(ptr noundef nonnull align 8 dereferenceable(188) %11, i32 noundef %12)
  store ptr %13, ptr %6, align 8
  %14 = load ptr, ptr %6, align 8
  %15 = icmp ne ptr %14, null
  br i1 %15, label %16, label %19

16:                                               ; preds = %2
  %17 = load ptr, ptr %6, align 8
  %18 = call noundef ptr @_ZN4llvm4castINS_8MDStringENS_8MetadataEEEDcPT0_(ptr noundef %17)
  store ptr %18, ptr %3, align 8
  br label %35

19:                                               ; preds = %2
  %20 = getelementptr inbounds nuw %"class.llvm::MetadataLoader::MetadataLoaderImpl", ptr %9, i32 0, i32 3
  %21 = load ptr, ptr %20, align 8
  %22 = getelementptr inbounds nuw %"class.llvm::MetadataLoader::MetadataLoaderImpl", ptr %9, i32 0, i32 7
  %23 = load i32, ptr %5, align 4
  %24 = zext i32 %23 to i64
  %25 = call noundef nonnull align 8 dereferenceable(16) ptr @_ZNSt6vectorIN4llvm9StringRefESaIS1_EEixEm(ptr noundef nonnull align 8 dereferenceable(24) %22, i64 noundef %24) #2
  call void @llvm.memcpy.p0.p0.i64(ptr align 8 %8, ptr align 8 %25, i64 16, i1 false)
  %26 = getelementptr inbounds nuw { ptr, i64 }, ptr %8, i32 0, i32 0
  %27 = load ptr, ptr %26, align 8
  %28 = getelementptr inbounds nuw { ptr, i64 }, ptr %8, i32 0, i32 1
  %29 = load i64, ptr %28, align 8
  %30 = call noundef ptr @_ZN4llvm8MDString3getERNS_11LLVMContextENS_9StringRefE(ptr noundef nonnull align 8 dereferenceable(8) %21, ptr %27, i64 %29)
  store ptr %30, ptr %7, align 8
  %31 = getelementptr inbounds nuw %"class.llvm::MetadataLoader::MetadataLoaderImpl", ptr %9, i32 0, i32 0
  %32 = load ptr, ptr %7, align 8
  %33 = load i32, ptr %5, align 4
  call void @_ZN12_GLOBAL__N_125BitcodeReaderMetadataList11assignValueEPN4llvm8MetadataEj(ptr noundef nonnull align 8 dereferenceable(188) %31, ptr noundef %32, i32 noundef %33)
  %34 = load ptr, ptr %7, align 8
  store ptr %34, ptr %3, align 8
  br label %35

35:                                               ; preds = %19, %16
  %36 = load ptr, ptr %3, align 8
  ret ptr %36
}