; Function Attrs: mustprogress nounwind uwtable
define dso_local noundef ptr @_ZN4llvm14MetadataLoader18MetadataLoaderImpl19lazyLoadOneMDStringEj(ptr noundef nonnull align 8 dereferenceable(1073) %0, i32 noundef %1) local_unnamed_addr #0 align 2 {
  %3 = zext i32 %1 to i64
  %4 = tail call noundef i64 @_ZNK4llvm15SmallVectorBaseIjE4sizeEv(ptr noundef nonnull align 8 dereferenceable(16) %0) #24
  %5 = icmp ugt i64 %4, %3
  br i1 %5, label %_ZNK12_GLOBAL__N_125BitcodeReaderMetadataList6lookupEj.exit, label %_ZNK12_GLOBAL__N_125BitcodeReaderMetadataList6lookupEj.exit.thread

_ZNK12_GLOBAL__N_125BitcodeReaderMetadataList6lookupEj.exit: ; preds = %2
  %6 = load ptr, ptr %0, align 8
  %7 = getelementptr inbounds %"class.llvm::TrackingMDRef", ptr %6, i64 %3
  %8 = load ptr, ptr %7, align 8
  %.not = icmp eq ptr %8, null
  br i1 %.not, label %_ZNK12_GLOBAL__N_125BitcodeReaderMetadataList6lookupEj.exit.thread, label %15

_ZNK12_GLOBAL__N_125BitcodeReaderMetadataList6lookupEj.exit.thread: ; preds = %2, %_ZNK12_GLOBAL__N_125BitcodeReaderMetadataList6lookupEj.exit
  %9 = getelementptr inbounds nuw i8, ptr %0, i64 208
  %10 = load ptr, ptr %9, align 8
  %11 = getelementptr inbounds nuw i8, ptr %0, i64 672
  %12 = load ptr, ptr %11, align 8
  %13 = getelementptr inbounds %"class.llvm::StringRef", ptr %12, i64 %3
  %.sroa.0.0.copyload = load ptr, ptr %13, align 8
  %.sroa.2.0..sroa_idx = getelementptr inbounds i8, ptr %13, i64 8
  %.sroa.2.0.copyload = load i64, ptr %.sroa.2.0..sroa_idx, align 8
  %14 = tail call noundef ptr @_ZN4llvm8MDString3getERNS_11LLVMContextENS_9StringRefE(ptr noundef nonnull align 8 dereferenceable(8) %10, ptr %.sroa.0.0.copyload, i64 %.sroa.2.0.copyload) #24
  tail call fastcc void @_ZN12_GLOBAL__N_125BitcodeReaderMetadataList11assignValueEPN4llvm8MetadataEj(ptr noundef nonnull align 8 dereferenceable(188) %0, ptr noundef %14, i32 noundef %1)
  br label %15

15:                                               ; preds = %_ZNK12_GLOBAL__N_125BitcodeReaderMetadataList6lookupEj.exit, %_ZNK12_GLOBAL__N_125BitcodeReaderMetadataList6lookupEj.exit.thread
  %.0 = phi ptr [ %14, %_ZNK12_GLOBAL__N_125BitcodeReaderMetadataList6lookupEj.exit.thread ], [ %8, %_ZNK12_GLOBAL__N_125BitcodeReaderMetadataList6lookupEj.exit ]
  ret ptr %.0
}